(dp1
S'FangSong_GB2312'
p2
cnumpy.core.multiarray
_reconstruct
p3
(cnumpy
ndarray
p4
(I0
tS'b'
tRp5
(I1
(I2
tcnumpy
dtype
p6
(S'f8'
I0
I1
tRp7
(I3
S'<'
NNNI-1
I-1
I0
tbI00
S'f\x01\xc7\xf0o\xf7\xef?\xb0\xcd\x1aitP\xf2?'
tbs.